###############################################################################
#                                                                             #
# IAR C/C++ Compiler V8.10.1.10194/W32 for 8051         31/Jan/2018  15:25:04 #
# Copyright 2004-2011 IAR Systems AB.                                         #
#                                                                             #
#    Core               =  plain                                              #
#    Code model         =  banked                                             #
#    Data model         =  large                                              #
#    Calling convention =  xdata reentrant                                    #
#    Constant location  =  data_rom                                           #
#    Dptr setup         =  1,16                                               #
#    Source file        =  D:\smart light\smart-light                         #
#                          project\zigbee\Projects\zstack\Samples\SampleApp\S #
#                          ource\SampleApp.c                                  #
#    Command line       =  -f "D:\smart light\smart-light                     #
#                          project\zigbee\Projects\zstack\Samples\SampleApp\C #
#                          C2530DB\..\..\..\Tools\CC2530DB\f8wCoord.cfg"      #
#                          (-DCPU32MHZ -DROOT=__near_func                     #
#                          -DMAC_CFG_APP_PENDING_QUEUE=TRUE                   #
#                          -DMAC_CFG_TX_DATA_MAX=5 -DMAC_CFG_TX_MAX=8         #
#                          -DMAC_CFG_RX_MAX=5 -DZDO_COORDINATOR -DRTR_NWK)    #
#                          -f "D:\smart light\smart-light                     #
#                          project\zigbee\Projects\zstack\Samples\SampleApp\C #
#                          C2530DB\..\..\..\Tools\CC2530DB\f8wConfig.cfg"     #
#                          (-DZIGBEEPRO -DSECURE=0 -DZG_SECURE_DYNAMIC=0      #
#                          -DREFLECTOR -DDEFAULT_CHANLIST=0x00000800          #
#                          -DZDAPP_CONFIG_PAN_ID=0xFF00                       #
#                          -DNWK_START_DELAY=100 -DEXTENDED_JOINING_RANDOM_MA #
#                          SK=0x007F -DBEACON_REQUEST_DELAY=100               #
#                          -DBEACON_REQ_DELAY_MASK=0x00FF                     #
#                          -DLINK_STATUS_JITTER_MASK=0x007F                   #
#                          -DROUTE_EXPIRY_TIME=30 -DAPSC_ACK_WAIT_DURATION_PO #
#                          LLED=3000 -DNWK_INDIRECT_MSG_TIMEOUT=7             #
#                          -DMAX_RREQ_ENTRIES=8 -DAPSC_MAX_FRAME_RETRIES=3    #
#                          -DNWK_MAX_DATA_RETRIES=2                           #
#                          -DMAX_POLL_FAILURE_RETRIES=2 -DMAX_BCAST=9         #
#                          -DAPS_MAX_GROUPS=16 -DMAX_RTG_ENTRIES=40           #
#                          -DNWK_MAX_BINDING_ENTRIES=4                        #
#                          -DMAX_BINDING_CLUSTER_IDS=4 "-DDEFAULT_KEY={0x01,  #
#                          0x03, 0x05, 0x07, 0x09, 0x0B, 0x0D, 0x0F, 0x00,    #
#                          0x02, 0x04, 0x06, 0x08, 0x0A, 0x0C, 0x0D}"         #
#                          -DMAC_MAX_FRAME_SIZE=116                           #
#                          -DZDNWKMGR_MIN_TRANSMISSIONS=20 "-DCONST=const     #
#                          __code" -DGENERIC=__generic                        #
#                          -DRFD_RCVC_ALWAYS_ON=FALSE -DPOLL_RATE=1000        #
#                          -DQUEUED_POLL_RATE=100 -DRESPONSE_POLL_RATE=100)   #
#                          -DREJOIN_POLL_RATE=440 "D:\smart                   #
#                          light\smart-light project\zigbee\Projects\zstack\S #
#                          amples\SampleApp\Source\SampleApp.c" -D ZTOOL_P1   #
#                          -D xMT_TASK -D xMT_SYS_FUNC -D xMT_ZDO_FUNC -D     #
#                          LCD_SUPPORTED=DEBUG -lC "D:\smart                  #
#                          light\smart-light project\zigbee\Projects\zstack\S #
#                          amples\SampleApp\CC2530DB\CoordinatorEB\List\"     #
#                          -lA "D:\smart light\smart-light                    #
#                          project\zigbee\Projects\zstack\Samples\SampleApp\C #
#                          C2530DB\CoordinatorEB\List\" --diag_suppress       #
#                          Pe001,Pa010 -o "D:\smart light\smart-light         #
#                          project\zigbee\Projects\zstack\Samples\SampleApp\C #
#                          C2530DB\CoordinatorEB\Obj\" -e --no_code_motion    #
#                          --debug --core=plain --dptr=16,1                   #
#                          --data_model=large --code_model=banked             #
#                          --calling_convention=xdata_reentrant               #
#                          --place_constants=data_rom --nr_virtual_regs 16    #
#                          -I "D:\smart light\smart-light                     #
#                          project\zigbee\Projects\zstack\Samples\SampleApp\C #
#                          C2530DB\" -I "D:\smart light\smart-light           #
#                          project\zigbee\Projects\zstack\Samples\SampleApp\C #
#                          C2530DB\..\Source\" -I "D:\smart                   #
#                          light\smart-light project\zigbee\Projects\zstack\S #
#                          amples\SampleApp\CC2530DB\..\..\..\ZMain\TI2530DB\ #
#                          " -I "D:\smart light\smart-light                   #
#                          project\zigbee\Projects\zstack\Samples\SampleApp\C #
#                          C2530DB\..\..\..\..\..\Components\hal\include\"    #
#                          -I "D:\smart light\smart-light                     #
#                          project\zigbee\Projects\zstack\Samples\SampleApp\C #
#                          C2530DB\..\..\..\..\..\Components\hal\target\CC253 #
#                          0EB\" -I "D:\smart light\smart-light               #
#                          project\zigbee\Projects\zstack\Samples\SampleApp\C #
#                          C2530DB\..\..\..\..\..\Components\mac\include\"    #
#                          -I "D:\smart light\smart-light                     #
#                          project\zigbee\Projects\zstack\Samples\SampleApp\C #
#                          C2530DB\..\..\..\..\..\Components\mac\high_level\" #
#                           -I "D:\smart light\smart-light                    #
#                          project\zigbee\Projects\zstack\Samples\SampleApp\C #
#                          C2530DB\..\..\..\..\..\Components\mac\low_level\sr #
#                          f04\" -I "D:\smart light\smart-light               #
#                          project\zigbee\Projects\zstack\Samples\SampleApp\C #
#                          C2530DB\..\..\..\..\..\Components\mac\low_level\sr #
#                          f04\single_chip\" -I "D:\smart light\smart-light   #
#                          project\zigbee\Projects\zstack\Samples\SampleApp\C #
#                          C2530DB\..\..\..\..\..\Components\mt\" -I          #
#                          "D:\smart light\smart-light                        #
#                          project\zigbee\Projects\zstack\Samples\SampleApp\C #
#                          C2530DB\..\..\..\..\..\Components\osal\include\"   #
#                          -I "D:\smart light\smart-light                     #
#                          project\zigbee\Projects\zstack\Samples\SampleApp\C #
#                          C2530DB\..\..\..\..\..\Components\services\saddr\" #
#                           -I "D:\smart light\smart-light                    #
#                          project\zigbee\Projects\zstack\Samples\SampleApp\C #
#                          C2530DB\..\..\..\..\..\Components\services\sdata\" #
#                           -I "D:\smart light\smart-light                    #
#                          project\zigbee\Projects\zstack\Samples\SampleApp\C #
#                          C2530DB\..\..\..\..\..\Components\stack\af\" -I    #
#                          "D:\smart light\smart-light                        #
#                          project\zigbee\Projects\zstack\Samples\SampleApp\C #
#                          C2530DB\..\..\..\..\..\Components\stack\nwk\" -I   #
#                          "D:\smart light\smart-light                        #
#                          project\zigbee\Projects\zstack\Samples\SampleApp\C #
#                          C2530DB\..\..\..\..\..\Components\stack\sapi\" -I  #
#                          "D:\smart light\smart-light                        #
#                          project\zigbee\Projects\zstack\Samples\SampleApp\C #
#                          C2530DB\..\..\..\..\..\Components\stack\sec\" -I   #
#                          "D:\smart light\smart-light                        #
#                          project\zigbee\Projects\zstack\Samples\SampleApp\C #
#                          C2530DB\..\..\..\..\..\Components\stack\sys\" -I   #
#                          "D:\smart light\smart-light                        #
#                          project\zigbee\Projects\zstack\Samples\SampleApp\C #
#                          C2530DB\..\..\..\..\..\Components\stack\zdo\" -I   #
#                          "D:\smart light\smart-light                        #
#                          project\zigbee\Projects\zstack\Samples\SampleApp\C #
#                          C2530DB\..\..\..\..\..\Components\zmac\" -I        #
#                          "D:\smart light\smart-light                        #
#                          project\zigbee\Projects\zstack\Samples\SampleApp\C #
#                          C2530DB\..\..\..\..\..\Components\zmac\f8w\" -Ohz  #
#                          --require_prototypes                               #
#    List file          =  D:\smart light\smart-light                         #
#                          project\zigbee\Projects\zstack\Samples\SampleApp\C #
#                          C2530DB\CoordinatorEB\List\SampleApp.lst           #
#    Object file        =  D:\smart light\smart-light                         #
#                          project\zigbee\Projects\zstack\Samples\SampleApp\C #
#                          C2530DB\CoordinatorEB\Obj\SampleApp.r51            #
#                                                                             #
#                                                                             #
###############################################################################

D:\smart light\smart-light project\zigbee\Projects\zstack\Samples\SampleApp\Source\SampleApp.c
      1          /**************************************************************************************************
      2            Filename:       SampleApp.c
      3            Revised:        $Date: 2009-03-18 15:56:27 -0700 (Wed, 18 Mar 2009) $
      4            Revision:       $Revision: 19453 $
      5          
      6            Description:    Sample Application (no Profile).
      7          
      8          
      9            Copyright 2007 Texas Instruments Incorporated. All rights reserved.
     10          
     11            IMPORTANT: Your use of this Software is limited to those specific rights
     12            granted under the terms of a software license agreement between the user
     13            who downloaded the software, his/her employer (which must be your employer)
     14            and Texas Instruments Incorporated (the "License").  You may not use this
     15            Software unless you agree to abide by the terms of the License. The License
     16            limits your use, and you acknowledge, that the Software may not be modified,
     17            copied or distributed unless embedded on a Texas Instruments microcontroller
     18            or used solely and exclusively in conjunction with a Texas Instruments radio
     19            frequency transceiver, which is integrated into your product.  Other than for
     20            the foregoing purpose, you may not use, reproduce, copy, prepare derivative
     21            works of, modify, distribute, perform, display or sell this Software and/or
     22            its documentation for any purpose.
     23          
     24            YOU FURTHER ACKNOWLEDGE AND AGREE THAT THE SOFTWARE AND DOCUMENTATION ARE
     25            PROVIDED AS IS?WITHOUT WARRANTY OF ANY KIND, EITHER EXPRESS OR IMPLIED,
     26            INCLUDING WITHOUT LIMITATION, ANY WARRANTY OF MERCHANTABILITY, TITLE,
     27            NON-INFRINGEMENT AND FITNESS FOR A PARTICULAR PURPOSE. IN NO EVENT SHALL
     28            TEXAS INSTRUMENTS OR ITS LICENSORS BE LIABLE OR OBLIGATED UNDER CONTRACT,
     29            NEGLIGENCE, STRICT LIABILITY, CONTRIBUTION, BREACH OF WARRANTY, OR OTHER
     30            LEGAL EQUITABLE THEORY ANY DIRECT OR INDIRECT DAMAGES OR EXPENSES
     31            INCLUDING BUT NOT LIMITED TO ANY INCIDENTAL, SPECIAL, INDIRECT, PUNITIVE
     32            OR CONSEQUENTIAL DAMAGES, LOST PROFITS OR LOST DATA, COST OF PROCUREMENT
     33            OF SUBSTITUTE GOODS, TECHNOLOGY, SERVICES, OR ANY CLAIMS BY THIRD PARTIES
     34            (INCLUDING BUT NOT LIMITED TO ANY DEFENSE THEREOF), OR OTHER SIMILAR COSTS.
     35          
     36            Should you have any questions regarding your right to use this Software,
     37            contact Texas Instruments Incorporated at www.TI.com.
     38          **************************************************************************************************/
     39          
     40          /*********************************************************************
     41            This application isn't intended to do anything useful, it is
     42            intended to be a simple example of an application's structure.
     43          
     44            This application sends it's messages either as broadcast or
     45            broadcast filtered group messages.  The other (more normal)
     46            message addressing is unicast.  Most of the other sample
     47            applications are written to support the unicast message model.
     48          
     49            Key control:
     50              SW1:  Sends a flash command to all devices in Group 1.
     51              SW2:  Adds/Removes (toggles) this device in and out
     52                    of Group 1.  This will enable and disable the
     53                    reception of the flash command.
     54          *********************************************************************/
     55          
     56          /*********************************************************************
     57           * INCLUDES
     58           */
     59          #include "OSAL.h"
     60          #include "ZGlobals.h"
     61          #include "AF.h"
     62          #include "aps_groups.h"
     63          #include "ZDApp.h"
     64          
     65          #include "SampleApp.h"
     66          #include "SampleAppHw.h"
     67          
     68          #include "OnBoard.h"
     69          
     70          /* HAL */
     71          #include "hal_lcd.h"
     72          #include "hal_led.h"
     73          #include "hal_key.h"
     74          
     75          #include  "MT_UART.h" //此处用于串口
     76          #include"string.h"
     77          /*********************************************************************
     78           * MACROS
     79           */
     80          //typedef unsigned short uint16;
     81          /*********************************************************************
     82           * CONSTANTS
     83           */
     84          
     85          /*********************************************************************
     86           * TYPEDEFS
     87           */
     88          
     89          /*********************************************************************
     90           * GLOBAL VARIABLES
     91           */
     92          
     93          // This list should be filled with Application specific Cluster IDs.

   \                                 In  segment XDATA_ROM_C, align 1
     94          const cId_t SampleApp_ClusterList[SAMPLEAPP_MAX_CLUSTERS] =
   \                     SampleApp_ClusterList:
   \   000000   0100         DW 1
   \   000002   0200         DW 2
   \   000004   0000         DW 0
     95          {
     96            SAMPLEAPP_PERIODIC_CLUSTERID,
     97            SAMPLEAPP_FLASH_CLUSTERID
     98          };
     99          

   \                                 In  segment XDATA_ROM_C, align 1
    100          const SimpleDescriptionFormat_t SampleApp_SimpleDesc =
   \                     SampleApp_SimpleDesc:
   \   000000   14           DB 20
   \   000001   080F         DW 3848
   \   000003   0100         DW 1
   \   000005   00           DB 0
   \   000006   03           DB 3
   \   000007   ....         DW SampleApp_ClusterList
   \   000009   03           DB 3
   \   00000A   ....         DW SampleApp_ClusterList
    101          {
    102            SAMPLEAPP_ENDPOINT,              //  int Endpoint;
    103            SAMPLEAPP_PROFID,                //  uint16 AppProfId[2];
    104            SAMPLEAPP_DEVICEID,              //  uint16 AppDeviceId[2];
    105            SAMPLEAPP_DEVICE_VERSION,        //  int   AppDevVer:4;
    106            SAMPLEAPP_FLAGS,                 //  int   AppFlags:4;
    107            SAMPLEAPP_MAX_CLUSTERS,          //  uint8  AppNumInClusters;
    108            (cId_t *)SampleApp_ClusterList,  //  uint8 *pAppInClusterList;
    109            SAMPLEAPP_MAX_CLUSTERS,          //  uint8  AppNumInClusters;
    110            (cId_t *)SampleApp_ClusterList   //  uint8 *pAppInClusterList;
    111          };
    112          
    113          // This is the Endpoint/Interface description.  It is defined here, but
    114          // filled-in in SampleApp_Init().  Another way to go would be to fill
    115          // in the structure here and make it a "const" (in code space).  The
    116          // way it's defined in this sample app it is define in RAM.

   \                                 In  segment XDATA_Z, align 1, keep-with-next
    117          endPointDesc_t SampleApp_epDesc;
   \                     SampleApp_epDesc:
   \   000000                DS 6
   \   000006                REQUIRE __INIT_XDATA_Z
    118          
    119          /*********************************************************************
    120           * EXTERNAL VARIABLES
    121           */
    122          
    123          /*********************************************************************
    124           * EXTERNAL FUNCTIONS
    125           */
    126          
    127          /*********************************************************************
    128           * LOCAL VARIABLES
    129           */

   \                                 In  segment XDATA_Z, align 1, keep-with-next
    130          uint8 SampleApp_TaskID;   // Task ID for internal task/event processing
   \                     SampleApp_TaskID:
   \   000000                DS 1
   \   000001                REQUIRE __INIT_XDATA_Z
    131                                    // This variable will be received when
    132                                    // SampleApp_Init() is called.

   \                                 In  segment XDATA_Z, align 1, keep-with-next
    133          devStates_t SampleApp_NwkState;
   \                     SampleApp_NwkState:
   \   000000                DS 1
   \   000001                REQUIRE __INIT_XDATA_Z
    134          

   \                                 In  segment XDATA_Z, align 1, keep-with-next
    135          uint8 SampleApp_TransID;  // This is the unique message ID (counter)
   \                     SampleApp_TransID:
   \   000000                DS 1
   \   000001                REQUIRE __INIT_XDATA_Z
    136          

   \                                 In  segment XDATA_Z, align 1, keep-with-next
    137          afAddrType_t SampleApp_Periodic_DstAddr;
   \                     SampleApp_Periodic_DstAddr:
   \   000000                DS 12
   \   00000C                REQUIRE __INIT_XDATA_Z

   \                                 In  segment XDATA_Z, align 1, keep-with-next
    138          afAddrType_t SampleApp_Flash_DstAddr;
   \                     SampleApp_Flash_DstAddr:
   \   000000                DS 12
   \   00000C                REQUIRE __INIT_XDATA_Z
    139          

   \                                 In  segment XDATA_Z, align 1, keep-with-next
    140          afAddrType_t Point_To_Point_DstAddr;//网蜂点对点通信定义
   \                     Point_To_Point_DstAddr:
   \   000000                DS 12
   \   00000C                REQUIRE __INIT_XDATA_Z
    141          

   \                                 In  segment XDATA_Z, align 1, keep-with-next
    142          aps_Group_t SampleApp_Group;
   \                     SampleApp_Group:
   \   000000                DS 18
   \   000012                REQUIRE __INIT_XDATA_Z
    143          

   \                                 In  segment XDATA_Z, align 1, keep-with-next
    144          uint8 SampleAppPeriodicCounter = 0;
   \                     SampleAppPeriodicCounter:
   \   000000                DS 1
   \   000001                REQUIRE __INIT_XDATA_Z

   \                                 In  segment XDATA_Z, align 1, keep-with-next
    145          uint8 SampleAppFlashCounter = 0;
   \                     SampleAppFlashCounter:
   \   000000                DS 1
   \   000001                REQUIRE __INIT_XDATA_Z

   \                                 In  segment XDATA_I, align 1, keep-with-next
    146          static uint8 ID=1;
   \                     ID:
   \   000000                DS 1
   \   000001                REQUIRE `?<Initializer for ID>`
   \   000001                REQUIRE __INIT_XDATA_I
    147          
    148          /*********************************************************************
    149           * LOCAL FUNCTIONS
    150           */
    151          void SampleApp_HandleKeys( uint8 shift, uint8 keys );
    152          void SampleApp_MessageMSGCB( afIncomingMSGPacket_t *pckt );
    153          void SampleApp_SendPeriodicMessage( void );
    154          void SampleApp_SendFlashMessage( uint16 flashTime );
    155          void SampleApp_SendPointToPointMessage(uint8 *data );
    156          void SampleApp_CallBack(uint8 port, uint8 event);
    157          /*********************************************************************
    158           * NETWORK LAYER CALLBACKS
    159           */
    160          
    161          /*********************************************************************
    162           * PUBLIC FUNCTIONS
    163           */
    164          
    165          /*********************************************************************
    166           * @fn      SampleApp_Init
    167           *
    168           * @brief   Initialization function for the Generic App Task.
    169           *          This is called during initialization and should contain
    170           *          any application specific initialization (ie. hardware
    171           *          initialization/setup, table initialization, power up
    172           *          notificaiton ... ).
    173           *
    174           * @param   task_id - the ID assigned by OSAL.  This ID should be
    175           *                    used to send messages and set timers.
    176           *
    177           * @return  none
    178           */

   \                                 In  segment BANKED_CODE, align 1, keep-with-next
    179          void SampleApp_Init( uint8 task_id )
   \                     SampleApp_Init:
    180          {
   \   000000   74F5         MOV     A,#-0xb
   \   000002   12....       LCALL   ?BANKED_ENTER_XDATA
   \   000005                ; Saved register size: 11
   \   000005                ; Auto size: 29
   \   000005   74E3         MOV     A,#-0x1d
   \   000007   12....       LCALL   ?ALLOC_XSTACK8
   \   00000A   E9           MOV     A,R1
   \   00000B   FE           MOV     R6,A
    181            SampleApp_TaskID = task_id;
   \   00000C   90....       MOV     DPTR,#SampleApp_TaskID
   \   00000F   F0           MOVX    @DPTR,A
    182            SampleApp_NwkState = DEV_INIT;
   \   000010   90....       MOV     DPTR,#SampleApp_NwkState
   \   000013   7401         MOV     A,#0x1
   \   000015   F0           MOVX    @DPTR,A
    183            SampleApp_TransID = 0;
   \   000016   90....       MOV     DPTR,#SampleApp_TransID
   \   000019   E4           CLR     A
   \   00001A   F0           MOVX    @DPTR,A
    184           
    185            
    186            
    187            //MT_UartInit();//串口初始化
    188             halUARTCfg_t uartConfig;
    189            //------------------------配置串口---------------------------------
    190            uartConfig.configured           = TRUE;              
   \   00001B   85..82       MOV     DPL,?XSP + 0
   \   00001E   85..83       MOV     DPH,?XSP + 1
   \   000021   04           INC     A
   \   000022   F0           MOVX    @DPTR,A
    191            uartConfig.baudRate             = HAL_UART_BR_115200;
   \   000023   12....       LCALL   ?XSTACK_DISP0_8
   \   000026   7404         MOV     A,#0x4
   \   000028   F0           MOVX    @DPTR,A
    192            uartConfig.flowControl          = FALSE;
   \   000029   7402         MOV     A,#0x2
   \   00002B   12....       LCALL   ?XSTACK_DISP0_8
   \   00002E   E4           CLR     A
   \   00002F   F0           MOVX    @DPTR,A
    193            uartConfig.flowControlThreshold = 64;  
   \   000030   7403         MOV     A,#0x3
   \   000032   12....       LCALL   ?XSTACK_DISP0_8
   \   000035   7440         MOV     A,#0x40
   \   000037   12....       LCALL   ??Subroutine3_0 & 0xFFFF
    194            uartConfig.rx.maxBufSize        = 128;  
   \                     ??CrossCallReturnLabel_1:
   \   00003A   740A         MOV     A,#0xa
   \   00003C   12....       LCALL   ?XSTACK_DISP0_8
   \   00003F   12....       LCALL   ?Subroutine2 & 0xFFFF
    195            uartConfig.tx.maxBufSize        = 128;  
   \                     ??CrossCallReturnLabel_4:
   \   000042   7412         MOV     A,#0x12
   \   000044   12....       LCALL   ?XSTACK_DISP0_8
   \   000047   12....       LCALL   ?Subroutine2 & 0xFFFF
    196            uartConfig.idleTimeout          = 100;    
   \                     ??CrossCallReturnLabel_5:
   \   00004A   7405         MOV     A,#0x5
   \   00004C   12....       LCALL   ?XSTACK_DISP0_8
   \   00004F   7464         MOV     A,#0x64
   \   000051   F0           MOVX    @DPTR,A
    197            uartConfig.intEnable            = TRUE; 
   \   000052   7416         MOV     A,#0x16
   \   000054   12....       LCALL   ?XSTACK_DISP0_8
   \   000057   7401         MOV     A,#0x1
   \   000059   F0           MOVX    @DPTR,A
    198            uartConfig.callBackFunc         =SampleApp_CallBack;
   \   00005A   741B         MOV     A,#0x1b
   \   00005C   12....       LCALL   ?XSTACK_DISP0_8
   \   00005F   74..         MOV     A,#??SampleApp_CallBack?relay & 0xff
   \   000061   F0           MOVX    @DPTR,A
   \   000062   A3           INC     DPTR
   \   000063   74..         MOV     A,#(??SampleApp_CallBack?relay >> 8) & 0xff
   \   000065   F0           MOVX    @DPTR,A
    199            HalUARTOpen (0, &uartConfig); 
   \   000066                ; Setup parameters for call to function HalUARTOpen
   \   000066   85..82       MOV     DPL,?XSP + 0
   \   000069   85..83       MOV     DPH,?XSP + 1
   \   00006C   AA82         MOV     R2,DPL
   \   00006E   AB83         MOV     R3,DPH
   \   000070   7900         MOV     R1,#0x0
   \   000072   12....       LCALL   ??HalUARTOpen?relay
    200            //HalUARTWrite(0,"DEVICE START:\r\n",strlen("DEVICE START:\r\n"));
    201            
    202            
    203            MT_UartRegisterTaskID(task_id);//登记任务号
   \   000075                ; Setup parameters for call to function MT_UartRegisterTaskID
   \   000075   EE           MOV     A,R6
   \   000076   F9           MOV     R1,A
   \   000077   12....       LCALL   ??MT_UartRegisterTaskID?relay
    204            //halRfSetGain(1);
    205            
    206            // Device hardware initialization can be added here or in main() (Zmain.c).
    207            // If the hardware is application specific - add it here.
    208            // If the hardware is other parts of the device add it in main().
    209          
    210           #if defined ( BUILD_ALL_DEVICES )
    211            // The "Demo" target is setup to have BUILD_ALL_DEVICES and HOLD_AUTO_START
    212            // We are looking at a jumper (defined in SampleAppHw.c) to be jumpered
    213            // together - if they are - we will start up a coordinator. Otherwise,
    214            // the device will start as a router.
    215            if ( readCoordinatorJumper() )
    216              zgDeviceLogicalType = ZG_DEVICETYPE_COORDINATOR;
    217            else
    218              zgDeviceLogicalType = ZG_DEVICETYPE_ROUTER;
    219          #endif // BUILD_ALL_DEVICES
    220          
    221          #if defined ( HOLD_AUTO_START )
    222            // HOLD_AUTO_START is a compile option that will surpress ZDApp
    223            //  from starting the device and wait for the application to
    224            //  start the device.
    225            ZDOInitDevice(0);
    226          #endif
    227          
    228            // Setup for the periodic message's destination address
    229            // Broadcast to everyone
    230            SampleApp_Periodic_DstAddr.addrMode = (afAddrMode_t)AddrBroadcast;
   \   00007A   90....       MOV     DPTR,#SampleApp_Periodic_DstAddr + 8
   \   00007D   740F         MOV     A,#0xf
   \   00007F   F0           MOVX    @DPTR,A
    231            SampleApp_Periodic_DstAddr.endPoint = SAMPLEAPP_ENDPOINT;
   \   000080   A3           INC     DPTR
   \   000081   7414         MOV     A,#0x14
   \   000083   F0           MOVX    @DPTR,A
    232            SampleApp_Periodic_DstAddr.addr.shortAddr = 0xFFFF;
   \   000084   90....       MOV     DPTR,#SampleApp_Periodic_DstAddr
   \   000087   74FF         MOV     A,#-0x1
   \   000089   F0           MOVX    @DPTR,A
   \   00008A   A3           INC     DPTR
   \   00008B   F0           MOVX    @DPTR,A
    233          
    234            // Setup for the flash command's destination address - Group 1
    235            SampleApp_Flash_DstAddr.addrMode = (afAddrMode_t)afAddrGroup;
   \   00008C   90....       MOV     DPTR,#SampleApp_Flash_DstAddr + 8
   \   00008F   7401         MOV     A,#0x1
   \   000091   F0           MOVX    @DPTR,A
    236            SampleApp_Flash_DstAddr.endPoint = SAMPLEAPP_ENDPOINT;
   \   000092   A3           INC     DPTR
   \   000093   7414         MOV     A,#0x14
   \   000095   F0           MOVX    @DPTR,A
    237            SampleApp_Flash_DstAddr.addr.shortAddr = SAMPLEAPP_FLASH_GROUP;
   \   000096   90....       MOV     DPTR,#SampleApp_Flash_DstAddr
   \   000099   7401         MOV     A,#0x1
   \   00009B   12....       LCALL   ??Subroutine3_0 & 0xFFFF
    238            
    239            // 网蜂点对点通讯定义
    240              Point_To_Point_DstAddr.addrMode = (afAddrMode_t)Addr16Bit;//点播
   \                     ??CrossCallReturnLabel_2:
   \   00009E   90....       MOV     DPTR,#Point_To_Point_DstAddr + 8
   \   0000A1   7402         MOV     A,#0x2
   \   0000A3   F0           MOVX    @DPTR,A
    241              Point_To_Point_DstAddr.endPoint = SAMPLEAPP_ENDPOINT;
   \   0000A4   A3           INC     DPTR
   \   0000A5   7414         MOV     A,#0x14
   \   0000A7   F0           MOVX    @DPTR,A
    242              Point_To_Point_DstAddr.addr.shortAddr = 0x0000; //发给协调器
   \   0000A8   90....       MOV     DPTR,#Point_To_Point_DstAddr
   \   0000AB   E4           CLR     A
   \   0000AC   F0           MOVX    @DPTR,A
   \   0000AD   A3           INC     DPTR
   \   0000AE   F0           MOVX    @DPTR,A
    243          
    244          
    245            // Fill out the endpoint description.
    246            SampleApp_epDesc.endPoint = SAMPLEAPP_ENDPOINT;
   \   0000AF   90....       MOV     DPTR,#SampleApp_epDesc
   \   0000B2   7414         MOV     A,#0x14
   \   0000B4   F0           MOVX    @DPTR,A
    247            SampleApp_epDesc.task_id = &SampleApp_TaskID;
   \   0000B5   A3           INC     DPTR
   \   0000B6   74..         MOV     A,#SampleApp_TaskID & 0xff
   \   0000B8   F0           MOVX    @DPTR,A
   \   0000B9   A3           INC     DPTR
   \   0000BA   74..         MOV     A,#(SampleApp_TaskID >> 8) & 0xff
   \   0000BC   F0           MOVX    @DPTR,A
    248            SampleApp_epDesc.simpleDesc
    249                      = (SimpleDescriptionFormat_t *)&SampleApp_SimpleDesc;
   \   0000BD   A3           INC     DPTR
   \   0000BE   74..         MOV     A,#SampleApp_SimpleDesc & 0xff
   \   0000C0   F0           MOVX    @DPTR,A
   \   0000C1   A3           INC     DPTR
   \   0000C2   74..         MOV     A,#(SampleApp_SimpleDesc >> 8) & 0xff
   \   0000C4   12....       LCALL   ??Subroutine3_0 & 0xFFFF
    250            SampleApp_epDesc.latencyReq = noLatencyReqs;
    251          
    252            // Register the endpoint description with the AF
    253            afRegister( &SampleApp_epDesc );
   \                     ??CrossCallReturnLabel_0:
   \   0000C7                ; Setup parameters for call to function afRegister
   \   0000C7   7A..         MOV     R2,#SampleApp_epDesc & 0xff
   \   0000C9   7B..         MOV     R3,#(SampleApp_epDesc >> 8) & 0xff
   \   0000CB   12....       LCALL   ??afRegister?relay
    254          
    255            // Register for all key events - This app will handle all key events
    256            RegisterForKeys( SampleApp_TaskID );
   \   0000CE                ; Setup parameters for call to function RegisterForKeys
   \   0000CE   90....       MOV     DPTR,#SampleApp_TaskID
   \   0000D1   E0           MOVX    A,@DPTR
   \   0000D2   F9           MOV     R1,A
   \   0000D3   12....       LCALL   ??RegisterForKeys?relay
    257          
    258            // By default, all devices start out in Group 1
    259            SampleApp_Group.ID = 0x0001;
   \   0000D6   90....       MOV     DPTR,#SampleApp_Group
   \   0000D9   7401         MOV     A,#0x1
   \   0000DB   12....       LCALL   ??Subroutine3_0 & 0xFFFF
    260            osal_memcpy( SampleApp_Group.name, "Group 1", 7  );
   \                     ??CrossCallReturnLabel_3:
   \   0000DE                ; Setup parameters for call to function osal_memcpy
   \   0000DE   75....       MOV     ?V0 + 0,#`?<Constant "Group 1">` & 0xff
   \   0000E1   75....       MOV     ?V0 + 1,#(`?<Constant "Group 1">` >> 8) & 0xff
   \   0000E4   F5..         MOV     ?V0 + 2,A
   \   0000E6   78..         MOV     R0,#?V0 + 0
   \   0000E8   12....       LCALL   ?PUSH_XSTACK_I_THREE
   \   0000EB   7C07         MOV     R4,#0x7
   \   0000ED   7D00         MOV     R5,#0x0
   \   0000EF   7A..         MOV     R2,#(SampleApp_Group + 2) & 0xff
   \   0000F1   7B..         MOV     R3,#((SampleApp_Group + 2) >> 8) & 0xff
   \   0000F3   12....       LCALL   ??osal_memcpy?relay
   \   0000F6   7403         MOV     A,#0x3
   \   0000F8   12....       LCALL   ?DEALLOC_XSTACK8
    261            aps_AddGroup( SAMPLEAPP_ENDPOINT, &SampleApp_Group );
   \   0000FB                ; Setup parameters for call to function aps_AddGroup
   \   0000FB   7A..         MOV     R2,#SampleApp_Group & 0xff
   \   0000FD   7B..         MOV     R3,#(SampleApp_Group >> 8) & 0xff
   \   0000FF   7914         MOV     R1,#0x14
   \   000101   12....       LCALL   ??aps_AddGroup?relay
    262          
    263          #if defined ( LCD_SUPPORTED )
    264            HalLcdWriteString( "SampleApp", HAL_LCD_LINE_1 );
   \   000104                ; Setup parameters for call to function HalLcdWriteString
   \   000104   7901         MOV     R1,#0x1
   \   000106   7A..         MOV     R2,#`?<Constant "SampleApp">` & 0xff
   \   000108   7B..         MOV     R3,#(`?<Constant "SampleApp">` >> 8) & 0xff
   \   00010A   12....       LCALL   ??HalLcdWriteString?relay
    265          #endif
    266          }
   \   00010D   741D         MOV     A,#0x1d
   \   00010F   02....       LJMP    ??Subroutine4_0 & 0xFFFF

   \                                 In  segment BANKED_CODE, align 1, keep-with-next
   \                     ?Subroutine2:
   \   000000   7480         MOV     A,#-0x80
   \   000002                REQUIRE ??Subroutine3_0
   \   000002                ; // Fall through to label ??Subroutine3_0

   \                                 In  segment BANKED_CODE, align 1, keep-with-next
   \                     ??Subroutine3_0:
   \   000000   F0           MOVX    @DPTR,A
   \   000001   A3           INC     DPTR
   \   000002   E4           CLR     A
   \   000003   F0           MOVX    @DPTR,A
   \   000004   22           RET

   \                                 In  segment BANKED_CODE, align 1, keep-with-next
   \                     ??Subroutine4_0:
   \   000000   12....       LCALL   ?DEALLOC_XSTACK8
   \   000003   7F03         MOV     R7,#0x3
   \   000005   02....       LJMP    ?BANKED_LEAVE_XDATA
    267          
    268          /*********************************************************************
    269           * @fn      SampleApp_ProcessEvent
    270           *
    271           * @brief   Generic Application Task event processor.  This function
    272           *          is called to process all events for the task.  Events
    273           *          include timers, messages and any other user defined events.
    274           *
    275           * @param   task_id  - The OSAL assigned task ID.
    276           * @param   events - events to process.  This is a bit map and can
    277           *                   contain more than one event.
    278           *
    279           * @return  none
    280           */

   \                                 In  segment BANKED_CODE, align 1, keep-with-next
    281          uint16 SampleApp_ProcessEvent( uint8 task_id, uint16 events )
   \                     SampleApp_ProcessEvent:
    282          {
   \   000000   74F4         MOV     A,#-0xc
   \   000002   12....       LCALL   ?BANKED_ENTER_XDATA
   \   000005                ; Saved register size: 12
   \   000005                ; Auto size: 0
   \   000005   8A..         MOV     ?V0 + 0,R2
   \   000007   8B..         MOV     ?V0 + 1,R3
    283            afIncomingMSGPacket_t *MSGpkt;
    284            (void)task_id;  // Intentionally unreferenced parameter
    285          
    286            if ( events & SYS_EVENT_MSG )
   \   000009   EB           MOV     A,R3
   \   00000A   5480         ANL     A,#0x80
   \   00000C   605A         JZ      ??SampleApp_ProcessEvent_0
    287            {
    288              MSGpkt = (afIncomingMSGPacket_t *)osal_msg_receive( SampleApp_TaskID );
   \   00000E                ; Setup parameters for call to function osal_msg_receive
   \   00000E   800D         SJMP    ??SampleApp_ProcessEvent_1
    289              while ( MSGpkt )
    290              {
    291                switch ( MSGpkt->hdr.event )
    292                {
    293                  // Received when a key is pressed
    294                  case KEY_CHANGE:
    295                    SampleApp_HandleKeys( ((keyChange_t *)MSGpkt)->state, ((keyChange_t *)MSGpkt)->keys );
    296                    break;
    297          
    298                  // Received when a messages is received (OTA) for this endpoint
    299                  case AF_INCOMING_MSG_CMD:
    300                    SampleApp_MessageMSGCB( MSGpkt );
    301                    break;
    302          
    303                  // Received whenever the device changes state in the network
    304                  case ZDO_STATE_CHANGE:
    305                    SampleApp_NwkState = (devStates_t)(MSGpkt->hdr.status);
   \                     ??SampleApp_ProcessEvent_2:
   \   000010   A3           INC     DPTR
   \   000011   E0           MOVX    A,@DPTR
   \   000012   90....       MOV     DPTR,#SampleApp_NwkState
   \   000015   F0           MOVX    @DPTR,A
    306                    if ( //(SampleApp_NwkState == DEV_ZB_COORD)|| //协调器不给自己点播
    307                         (SampleApp_NwkState == DEV_ROUTER)
    308                        || (SampleApp_NwkState == DEV_END_DEVICE) )
    309                    {
    310                      // Start sending the periodic message in a regular interval.
    311                      //osal_start_timerEx( SampleApp_TaskID,
    312                                       // SAMPLEAPP_SEND_PERIODIC_MSG_EVT,
    313                                       // SAMPLEAPP_SEND_PERIODIC_MSG_TIMEOUT );
    314                    }
    315                    else
    316                    {
    317                      // Device is no longer in the network
    318                    }
    319                    break;
    320          
    321                  default:
    322                    break;
    323                }
    324          
    325                // Release the memory
    326                osal_msg_deallocate( (uint8 *)MSGpkt );
   \                     ??SampleApp_ProcessEvent_3:
   \   000016                ; Setup parameters for call to function osal_msg_deallocate
   \   000016   EE           MOV     A,R6
   \   000017   FA           MOV     R2,A
   \   000018   EF           MOV     A,R7
   \   000019   FB           MOV     R3,A
   \   00001A   12....       LCALL   ??osal_msg_deallocate?relay
    327          
    328                // Next - if one is available
    329                MSGpkt = (afIncomingMSGPacket_t *)osal_msg_receive( SampleApp_TaskID );
   \   00001D                ; Setup parameters for call to function osal_msg_receive
   \                     ??SampleApp_ProcessEvent_1:
   \   00001D   90....       MOV     DPTR,#SampleApp_TaskID
   \   000020   E0           MOVX    A,@DPTR
   \   000021   F9           MOV     R1,A
   \   000022   12....       LCALL   ??osal_msg_receive?relay
   \   000025   8A..         MOV     ?V0 + 2,R2
   \   000027   8B..         MOV     ?V0 + 3,R3
   \   000029   AE..         MOV     R6,?V0 + 2
   \   00002B   AF..         MOV     R7,?V0 + 3
   \   00002D   EE           MOV     A,R6
   \   00002E   4F           ORL     A,R7
   \   00002F   602E         JZ      ??SampleApp_ProcessEvent_4
   \   000031   8E82         MOV     DPL,R6
   \   000033   8F83         MOV     DPH,R7
   \   000035   E0           MOVX    A,@DPTR
   \   000036   24E6         ADD     A,#-0x1a
   \   000038   601C         JZ      ??SampleApp_ProcessEvent_5
   \   00003A   245A         ADD     A,#0x5a
   \   00003C   6006         JZ      ??SampleApp_ProcessEvent_6
   \   00003E   24EF         ADD     A,#-0x11
   \   000040   60CE         JZ      ??SampleApp_ProcessEvent_2
   \   000042   80D2         SJMP    ??SampleApp_ProcessEvent_3
   \                     ??SampleApp_ProcessEvent_6:
   \   000044                ; Setup parameters for call to function SampleApp_HandleKeys
   \   000044   A3           INC     DPTR
   \   000045   A3           INC     DPTR
   \   000046   A3           INC     DPTR
   \   000047   E0           MOVX    A,@DPTR
   \   000048   FA           MOV     R2,A
   \   000049   8E82         MOV     DPL,R6
   \   00004B   8F83         MOV     DPH,R7
   \   00004D   A3           INC     DPTR
   \   00004E   A3           INC     DPTR
   \   00004F   E0           MOVX    A,@DPTR
   \   000050   F9           MOV     R1,A
   \   000051   12....       LCALL   ??SampleApp_HandleKeys?relay
   \   000054   80C0         SJMP    ??SampleApp_ProcessEvent_3
   \                     ??SampleApp_ProcessEvent_5:
   \   000056                ; Setup parameters for call to function SampleApp_MessageMSGCB
   \   000056   EE           MOV     A,R6
   \   000057   FA           MOV     R2,A
   \   000058   EF           MOV     A,R7
   \   000059   FB           MOV     R3,A
   \   00005A   12....       LCALL   ??SampleApp_MessageMSGCB?relay
   \   00005D   80B7         SJMP    ??SampleApp_ProcessEvent_3
    330              }
    331          
    332              // return unprocessed events
    333              return (events ^ SYS_EVENT_MSG);
   \                     ??SampleApp_ProcessEvent_4:
   \   00005F   AA..         MOV     R2,?V0 + 0
   \   000061   E5..         MOV     A,?V0 + 1
   \   000063   6480         XRL     A,#0x80
   \   000065   FB           MOV     R3,A
   \   000066   8004         SJMP    ??SampleApp_ProcessEvent_7
    334            }
    335          
    336            // Send a message out - This event is generated by a timer
    337            //  (setup in SampleApp_Init()).
    338           // if ( events & SAMPLEAPP_SEND_PERIODIC_MSG_EVT )
    339           // {
    340              // Send the periodic message
    341              //SampleApp_SendPeriodicMessage();//周期性发送函数
    342               //SampleApp_SendPointToPointMessage();//此处替换成点播函数
    343               
    344              // Setup to send message again in normal period (+ a little jitter)
    345              //osal_start_timerEx( SampleApp_TaskID, SAMPLEAPP_SEND_PERIODIC_MSG_EVT,
    346                 // (SAMPLEAPP_SEND_PERIODIC_MSG_TIMEOUT + (osal_rand() & 0x00FF)) );
    347          
    348              // return unprocessed events
    349             // return (events ^ SAMPLEAPP_SEND_PERIODIC_MSG_EVT);
    350            //}
    351          
    352            // Discard unknown events
    353            return 0;
   \                     ??SampleApp_ProcessEvent_0:
   \   000068   7A00         MOV     R2,#0x0
   \   00006A   7B00         MOV     R3,#0x0
   \                     ??SampleApp_ProcessEvent_7:
   \   00006C   7F04         MOV     R7,#0x4
   \   00006E   02....       LJMP    ?BANKED_LEAVE_XDATA
    354          }
    355          
    356          /*********************************************************************
    357           * Event Generation Functions
    358           */
    359          /*********************************************************************
    360           * @fn      SampleApp_HandleKeys
    361           *
    362           * @brief   Handles all key events for this device.
    363           *
    364           * @param   shift - true if in shift/alt.
    365           * @param   keys - bit field for key events. Valid entries:
    366           *                 HAL_KEY_SW_2
    367           *                 HAL_KEY_SW_1
    368           *
    369           * @return  none
    370           */

   \                                 In  segment BANKED_CODE, align 1, keep-with-next
    371          void SampleApp_HandleKeys( uint8 shift, uint8 keys )
   \                     SampleApp_HandleKeys:
    372          {
   \   000000   74F6         MOV     A,#-0xa
   \   000002   12....       LCALL   ?BANKED_ENTER_XDATA
   \   000005                ; Saved register size: 10
   \   000005                ; Auto size: 0
   \   000005   EA           MOV     A,R2
   \   000006   FE           MOV     R6,A
    373            (void)shift;  // Intentionally unreferenced parameter
    374            
    375            if ( keys & HAL_KEY_SW_1 )
   \   000007   A2E0         MOV     C,0xE0 /* A   */.0
   \   000009   5007         JNC     ??SampleApp_HandleKeys_0
    376            {
    377              /* This key sends the Flash Command is sent to Group 1.
    378               * This device will not receive the Flash Command from this
    379               * device (even if it belongs to group 1).
    380               */
    381              SampleApp_SendFlashMessage( SAMPLEAPP_FLASH_DURATION );
   \   00000B                ; Setup parameters for call to function SampleApp_SendFlashMessage
   \   00000B   7AE8         MOV     R2,#-0x18
   \   00000D   7B03         MOV     R3,#0x3
   \   00000F   12....       LCALL   ??SampleApp_SendFlashMessage?relay
    382            }
    383          
    384            if ( keys & HAL_KEY_SW_2 )
   \                     ??SampleApp_HandleKeys_0:
   \   000012   EE           MOV     A,R6
   \   000013   A2E1         MOV     C,0xE0 /* A   */.1
   \   000015   5024         JNC     ??SampleApp_HandleKeys_1
    385            {
    386              /* The Flashr Command is sent to Group 1.
    387               * This key toggles this device in and out of group 1.
    388               * If this device doesn't belong to group 1, this application
    389               * will not receive the Flash command sent to group 1.
    390               */
    391              aps_Group_t *grp;
    392              grp = aps_FindGroup( SAMPLEAPP_ENDPOINT, SAMPLEAPP_FLASH_GROUP );
    393              if ( grp )
   \   000017                ; Setup parameters for call to function aps_FindGroup
   \   000017   7A01         MOV     R2,#0x1
   \   000019   7B00         MOV     R3,#0x0
   \   00001B   7914         MOV     R1,#0x14
   \   00001D   12....       LCALL   ??aps_FindGroup?relay
   \   000020   8B..         MOV     ?V0 + 1,R3
   \   000022   EA           MOV     A,R2
   \   000023   45..         ORL     A,?V0 + 1
   \   000025   600B         JZ      ??SampleApp_HandleKeys_2
    394              {
    395                // Remove from the group
    396                aps_RemoveGroup( SAMPLEAPP_ENDPOINT, SAMPLEAPP_FLASH_GROUP );
   \   000027                ; Setup parameters for call to function aps_RemoveGroup
   \   000027   7A01         MOV     R2,#0x1
   \   000029   7B00         MOV     R3,#0x0
   \   00002B   7914         MOV     R1,#0x14
   \   00002D   12....       LCALL   ??aps_RemoveGroup?relay
   \   000030   8009         SJMP    ??SampleApp_HandleKeys_1
    397              }
    398              else
    399              {
    400                // Add to the flash group
    401                aps_AddGroup( SAMPLEAPP_ENDPOINT, &SampleApp_Group );
   \                     ??SampleApp_HandleKeys_2:
   \   000032                ; Setup parameters for call to function aps_AddGroup
   \   000032   7A..         MOV     R2,#SampleApp_Group & 0xff
   \   000034   7B..         MOV     R3,#(SampleApp_Group >> 8) & 0xff
   \   000036   7914         MOV     R1,#0x14
   \   000038   12....       LCALL   ??aps_AddGroup?relay
    402              }
    403            }
    404          }
   \                     ??SampleApp_HandleKeys_1:
   \   00003B                REQUIRE ?Subroutine1
   \   00003B                ; // Fall through to label ?Subroutine1

   \                                 In  segment BANKED_CODE, align 1, keep-with-next
   \                     ?Subroutine1:
   \   000000   7F02         MOV     R7,#0x2
   \   000002   02....       LJMP    ?BANKED_LEAVE_XDATA
    405          
    406          /*********************************************************************
    407           * LOCAL FUNCTIONS
    408           */
    409          
    410          /*********************************************************************
    411           * @fn      SampleApp_MessageMSGCB
    412           *
    413           * @brief   Data message processor callback.  This function processes
    414           *          any incoming data - probably from other devices.  So, based
    415           *          on cluster ID, perform the intended action.
    416           *
    417           * @param   none
    418           *
    419           * @return  none
    420           */

   \                                 In  segment BANKED_CODE, align 1, keep-with-next
    421          void SampleApp_MessageMSGCB( afIncomingMSGPacket_t *pkt )
   \                     SampleApp_MessageMSGCB:
    422          {
   \   000000   74F5         MOV     A,#-0xb
   \   000002   12....       LCALL   ?BANKED_ENTER_XDATA
   \   000005                ; Saved register size: 11
   \   000005                ; Auto size: 50
   \   000005   74CE         MOV     A,#-0x32
   \   000007   12....       LCALL   ?ALLOC_XSTACK8
    423            uint16 flashTime;
    424           // uint8 asc_16[16]={'0','1','2','3','4','5','6','7','8','9','A','B','C','D','E','F'};
    425            switch ( pkt->clusterId )
                   ^
Warning[Pe546]: transfer of control bypasses initialization of:
            variable "buff" (declared at line 430 of "D:\smart
                      light\smart-light
                      project\zigbee\Projects\zstack\Samples\SampleApp\Source\S
                      ampleApp.c")

    uint16 flashTime;
           ^
"D:\smart light\smart-light project\zigbee\Projects\zstack\Samples\SampleApp\Source\SampleApp.c",423  Warning[Pe550]: 
          variable "flashTime" was set but never used
   \   00000A   8A82         MOV     DPL,R2
   \   00000C   8B83         MOV     DPH,R3
   \   00000E   A3           INC     DPTR
   \   00000F   A3           INC     DPTR
   \   000010   A3           INC     DPTR
   \   000011   A3           INC     DPTR
   \   000012   E0           MOVX    A,@DPTR
   \   000013   6403         XRL     A,#0x3
   \   000015   7002         JNZ     ??SampleApp_MessageMSGCB_0
   \   000017   A3           INC     DPTR
   \   000018   E0           MOVX    A,@DPTR
   \                     ??SampleApp_MessageMSGCB_0:
   \   000019   706B         JNZ     ??SampleApp_MessageMSGCB_1
    426            {
    427              case SAMPLEAPP_POINT_TO_POINT_CLUSTERID:
    428                if(ID==0)return;
   \   00001B   90....       MOV     DPTR,#ID
   \   00001E   E0           MOVX    A,@DPTR
   \   00001F   6065         JZ      ??SampleApp_MessageMSGCB_1
    429                //HalLedBlink( HAL_LED_2, 1, 50, 200);
    430                uint8 buff[50]={0};
   \   000021   85..82       MOV     DPL,?XSP + 0
   \   000024   85..83       MOV     DPH,?XSP + 1
   \   000027   AC82         MOV     R4,DPL
   \   000029   AD83         MOV     R5,DPH
   \   00002B   7583..       MOV     DPH,#(`?<Constant {0}>` >> 8) & 0xff
   \   00002E   7582..       MOV     DPL,#`?<Constant {0}>` & 0xff
   \   000031   7432         MOV     A,#0x32
   \   000033   12....       LCALL   ?MOVE_LONG8_XDATA_XDATA
    431                osal_memcpy(buff,pkt->cmd.Data,50);
   \   000036                ; Setup parameters for call to function osal_memcpy
   \   000036   EA           MOV     A,R2
   \   000037   2422         ADD     A,#0x22
   \   000039   F582         MOV     DPL,A
   \   00003B   EB           MOV     A,R3
   \   00003C   3400         ADDC    A,#0x0
   \   00003E   F583         MOV     DPH,A
   \   000040   E0           MOVX    A,@DPTR
   \   000041   F5..         MOV     ?V0 + 0,A
   \   000043   A3           INC     DPTR
   \   000044   E0           MOVX    A,@DPTR
   \   000045   F5..         MOV     ?V0 + 1,A
   \   000047   75..00       MOV     ?V0 + 2,#0x0
   \   00004A   78..         MOV     R0,#?V0 + 0
   \   00004C   12....       LCALL   ?PUSH_XSTACK_I_THREE
   \   00004F   7C32         MOV     R4,#0x32
   \   000051   7D00         MOV     R5,#0x0
   \   000053   7403         MOV     A,#0x3
   \   000055   12....       LCALL   ?XSTACK_DISP0_8
   \   000058   AA82         MOV     R2,DPL
   \   00005A   AB83         MOV     R3,DPH
   \   00005C   12....       LCALL   ??osal_memcpy?relay
   \   00005F   7403         MOV     A,#0x3
   \   000061   12....       LCALL   ?DEALLOC_XSTACK8
    432               // HalLedBlink( HAL_LED_1, 1, 50, 200);
    433                if(buff[0]=='1')
   \   000064   85..82       MOV     DPL,?XSP + 0
   \   000067   85..83       MOV     DPH,?XSP + 1
   \   00006A   E0           MOVX    A,@DPTR
   \   00006B   6431         XRL     A,#0x31
   \   00006D   700A         JNZ     ??SampleApp_MessageMSGCB_2
    434                {
    435                    HalLedBlink( HAL_LED_1, 1, 50, 200); 
   \   00006F                ; Setup parameters for call to function HalLedBlink
   \   00006F   7CC8         MOV     R4,#-0x38
   \   000071   7D00         MOV     R5,#0x0
   \   000073   7B32         MOV     R3,#0x32
   \   000075   7A01         MOV     R2,#0x1
   \   000077   8008         SJMP    ??SampleApp_MessageMSGCB_3
    436                }
    437                else
    438                {
    439                    HalLedBlink( HAL_LED_1, 2, 50, 100); 
   \                     ??SampleApp_MessageMSGCB_2:
   \   000079                ; Setup parameters for call to function HalLedBlink
   \   000079   7C64         MOV     R4,#0x64
   \   00007B   7D00         MOV     R5,#0x0
   \   00007D   7B32         MOV     R3,#0x32
   \   00007F   7A02         MOV     R2,#0x2
   \                     ??SampleApp_MessageMSGCB_3:
   \   000081   7901         MOV     R1,#0x1
   \   000083   12....       LCALL   ??HalLedBlink?relay
    440                }
    441                break;
    442          
    443              case SAMPLEAPP_FLASH_CLUSTERID:
    444                flashTime = BUILD_UINT16(pkt->cmd.Data[1], pkt->cmd.Data[2] );
    445                //HalLedBlink( HAL_LED_1, 4, 50, (flashTime / 4) );
    446                break;
    447            }
   \                     ??SampleApp_MessageMSGCB_1:
   \   000086                REQUIRE ?Subroutine0
   \   000086                ; // Fall through to label ?Subroutine0
    448          }

   \                                 In  segment BANKED_CODE, align 1, keep-with-next
   \                     ?Subroutine0:
   \   000000   7432         MOV     A,#0x32
   \   000002                REQUIRE ??Subroutine4_0
   \   000002                ; // Fall through to label ??Subroutine4_0
    449          
    450          /*********************************************************************
    451           * @fn      SampleApp_SendPeriodicMessage
    452           *
    453           * @brief   Send the periodic message.
    454           *
    455           * @param   none
    456           *
    457           * @return  none
    458           */

   \                                 In  segment BANKED_CODE, align 1, keep-with-next
    459          void SampleApp_SendPeriodicMessage( void )
   \                     SampleApp_SendPeriodicMessage:
    460          {
   \   000000                ; Saved register size: 0
   \   000000                ; Auto size: 0
    461            //uint8 data[10]={'0','1','2','3','4','5','6','7','8','\m'};//自定义数据
    462            //HalUARTWrite(0,data,10);
    463            /*
    464              if ( AF_DataRequest( &SampleApp_Periodic_DstAddr, &SampleApp_epDesc,
    465                                   SAMPLEAPP_PERIODIC_CLUSTERID,
    466                                   10,//字节数
    467                                   data,//指针头
    468                                   &SampleApp_TransID,
    469                                   AF_DISCV_ROUTE,
    470                                   AF_DEFAULT_RADIUS ) == afStatus_SUCCESS )
    471              {
    472              }
    473              else
    474              {
    475                // Error occurred in request to send.
    476              }
    477            */
    478          }
   \   000000   02....       LJMP    ?BRET
    479          
    480          /*********************************************************************
    481           * @fn      SampleApp_SendFlashMessage
    482           *
    483           * @brief   Send the flash message to group 1.
    484           *
    485           * @param   flashTime - in milliseconds
    486           *
    487           * @return  none
    488           */

   \                                 In  segment BANKED_CODE, align 1, keep-with-next
    489          void SampleApp_SendFlashMessage( uint16 flashTime )
   \                     SampleApp_SendFlashMessage:
    490          {
   \   000000   74F6         MOV     A,#-0xa
   \   000002   12....       LCALL   ?BANKED_ENTER_XDATA
   \   000005                ; Saved register size: 10
   \   000005                ; Auto size: 3
   \   000005   74FD         MOV     A,#-0x3
   \   000007   12....       LCALL   ?ALLOC_XSTACK8
    491            uint8 buffer[3];
    492            buffer[0] = (uint8)(SampleAppFlashCounter++);
   \   00000A   90....       MOV     DPTR,#SampleAppFlashCounter
   \   00000D   E0           MOVX    A,@DPTR
   \   00000E   85..82       MOV     DPL,?XSP + 0
   \   000011   85..83       MOV     DPH,?XSP + 1
   \   000014   F0           MOVX    @DPTR,A
   \   000015   90....       MOV     DPTR,#SampleAppFlashCounter
   \   000018   E0           MOVX    A,@DPTR
   \   000019   04           INC     A
   \   00001A   F0           MOVX    @DPTR,A
    493            buffer[1] = LO_UINT16( flashTime );
   \   00001B   7401         MOV     A,#0x1
   \   00001D   12....       LCALL   ?XSTACK_DISP0_8
   \   000020   EA           MOV     A,R2
   \   000021   F0           MOVX    @DPTR,A
    494            buffer[2] = HI_UINT16( flashTime );
   \   000022   7402         MOV     A,#0x2
   \   000024   12....       LCALL   ?XSTACK_DISP0_8
   \   000027   EB           MOV     A,R3
   \   000028   F0           MOVX    @DPTR,A
    495          
    496            if ( AF_DataRequest( &SampleApp_Flash_DstAddr, &SampleApp_epDesc,
    497                                 SAMPLEAPP_FLASH_CLUSTERID,
    498                                 3,
    499                                 buffer,
    500                                 &SampleApp_TransID,
    501                                 AF_DISCV_ROUTE,
    502                                 AF_DEFAULT_RADIUS ) == afStatus_SUCCESS )
   \   000029                ; Setup parameters for call to function AF_DataRequest
   \   000029   75..1E       MOV     ?V0 + 0,#0x1e
   \   00002C   78..         MOV     R0,#?V0 + 0
   \   00002E   12....       LCALL   ?PUSH_XSTACK_I_ONE
   \   000031   75....       MOV     ?V0 + 0,#SampleApp_TransID & 0xff
   \   000034   75....       MOV     ?V0 + 1,#(SampleApp_TransID >> 8) & 0xff
   \   000037   78..         MOV     R0,#?V0 + 0
   \   000039   12....       LCALL   ?PUSH_XSTACK_I_TWO
   \   00003C   7403         MOV     A,#0x3
   \   00003E   12....       LCALL   ?XSTACK_DISP0_8
   \   000041   8582..       MOV     ?V0 + 0,DPL
   \   000044   8583..       MOV     ?V0 + 1,DPH
   \   000047   78..         MOV     R0,#?V0 + 0
   \   000049   12....       LCALL   ?PUSH_XSTACK_I_TWO
   \   00004C   75..03       MOV     ?V0 + 0,#0x3
   \   00004F   75..00       MOV     ?V0 + 1,#0x0
   \   000052   78..         MOV     R0,#?V0 + 0
   \   000054   12....       LCALL   ?PUSH_XSTACK_I_TWO
   \   000057   75..02       MOV     ?V0 + 0,#0x2
   \   00005A   78..         MOV     R0,#?V0 + 0
   \   00005C   12....       LCALL   ?PUSH_XSTACK_I_TWO
   \   00005F   7920         MOV     R1,#0x20
   \   000061   7C..         MOV     R4,#SampleApp_epDesc & 0xff
   \   000063   7D..         MOV     R5,#(SampleApp_epDesc >> 8) & 0xff
   \   000065   7A..         MOV     R2,#SampleApp_Flash_DstAddr & 0xff
   \   000067   7B..         MOV     R3,#(SampleApp_Flash_DstAddr >> 8) & 0xff
   \   000069   12....       LCALL   ??AF_DataRequest?relay
   \   00006C   7409         MOV     A,#0x9
   \   00006E   12....       LCALL   ?DEALLOC_XSTACK8
    503            {
    504            }
    505            else
    506            {
    507              // Error occurred in request to send.
    508            }
    509          }
   \   000071   7403         MOV     A,#0x3
   \   000073   12....       LCALL   ?DEALLOC_XSTACK8
   \   000076   02....       LJMP    ?Subroutine1 & 0xFFFF
    510          
    511          /*********************************************************************
    512          *********************************************************************/

   \                                 In  segment BANKED_CODE, align 1, keep-with-next
    513          void SampleApp_SendPointToPointMessage(uint8 *data )
   \                     SampleApp_SendPointToPointMessage:
    514          {
   \   000000   74F5         MOV     A,#-0xb
   \   000002   12....       LCALL   ?BANKED_ENTER_XDATA
   \   000005                ; Saved register size: 11
   \   000005                ; Auto size: 50
   \   000005   74CE         MOV     A,#-0x32
   \   000007   12....       LCALL   ?ALLOC_XSTACK8
    515          // const int n=strlen((char*)data)+1;
    516            uint8 sdata[50]={0};
   \   00000A   85..82       MOV     DPL,?XSP + 0
   \   00000D   85..83       MOV     DPH,?XSP + 1
   \   000010   AC82         MOV     R4,DPL
   \   000012   AD83         MOV     R5,DPH
   \   000014   7583..       MOV     DPH,#(`?<Constant {0}>_1` >> 8) & 0xff
   \   000017   7582..       MOV     DPL,#`?<Constant {0}>_1` & 0xff
   \   00001A   7432         MOV     A,#0x32
   \   00001C   12....       LCALL   ?MOVE_LONG8_XDATA_XDATA
    517            osal_memcpy(&sdata[0],data,48);
   \   00001F                ; Setup parameters for call to function osal_memcpy
   \   00001F   8A..         MOV     ?V0 + 0,R2
   \   000021   8B..         MOV     ?V0 + 1,R3
   \   000023   F5..         MOV     ?V0 + 2,A
   \   000025   78..         MOV     R0,#?V0 + 0
   \   000027   12....       LCALL   ?PUSH_XSTACK_I_THREE
   \   00002A   7C30         MOV     R4,#0x30
   \   00002C   7D00         MOV     R5,#0x0
   \   00002E   7403         MOV     A,#0x3
   \   000030   12....       LCALL   ?XSTACK_DISP0_8
   \   000033   AA82         MOV     R2,DPL
   \   000035   AB83         MOV     R3,DPH
   \   000037   12....       LCALL   ??osal_memcpy?relay
   \   00003A   7403         MOV     A,#0x3
   \   00003C   12....       LCALL   ?DEALLOC_XSTACK8
    518          
    519            if ( AF_DataRequest( &Point_To_Point_DstAddr,
    520                                 &SampleApp_epDesc,
    521                                 SAMPLEAPP_POINT_TO_POINT_CLUSTERID,
    522                                 50,
    523                                 sdata,
    524                                 &SampleApp_TransID,
    525                                 AF_DISCV_ROUTE,
    526                                 AF_DEFAULT_RADIUS ) == afStatus_SUCCESS )
   \   00003F                ; Setup parameters for call to function AF_DataRequest
   \   00003F   75..1E       MOV     ?V0 + 0,#0x1e
   \   000042   78..         MOV     R0,#?V0 + 0
   \   000044   12....       LCALL   ?PUSH_XSTACK_I_ONE
   \   000047   75....       MOV     ?V0 + 0,#SampleApp_TransID & 0xff
   \   00004A   75....       MOV     ?V0 + 1,#(SampleApp_TransID >> 8) & 0xff
   \   00004D   78..         MOV     R0,#?V0 + 0
   \   00004F   12....       LCALL   ?PUSH_XSTACK_I_TWO
   \   000052   7403         MOV     A,#0x3
   \   000054   12....       LCALL   ?XSTACK_DISP0_8
   \   000057   8582..       MOV     ?V0 + 0,DPL
   \   00005A   8583..       MOV     ?V0 + 1,DPH
   \   00005D   78..         MOV     R0,#?V0 + 0
   \   00005F   12....       LCALL   ?PUSH_XSTACK_I_TWO
   \   000062   75..32       MOV     ?V0 + 0,#0x32
   \   000065   75..00       MOV     ?V0 + 1,#0x0
   \   000068   78..         MOV     R0,#?V0 + 0
   \   00006A   12....       LCALL   ?PUSH_XSTACK_I_TWO
   \   00006D   75..03       MOV     ?V0 + 0,#0x3
   \   000070   78..         MOV     R0,#?V0 + 0
   \   000072   12....       LCALL   ?PUSH_XSTACK_I_TWO
   \   000075   7920         MOV     R1,#0x20
   \   000077   7C..         MOV     R4,#SampleApp_epDesc & 0xff
   \   000079   7D..         MOV     R5,#(SampleApp_epDesc >> 8) & 0xff
   \   00007B   7A..         MOV     R2,#Point_To_Point_DstAddr & 0xff
   \   00007D   7B..         MOV     R3,#(Point_To_Point_DstAddr >> 8) & 0xff
   \   00007F   12....       LCALL   ??AF_DataRequest?relay
   \   000082   7409         MOV     A,#0x9
   \   000084   12....       LCALL   ?DEALLOC_XSTACK8
    527            {
    528               osal_memset(sdata,0,50);
   \   000087                ; Setup parameters for call to function osal_memset
   \   000087   7C32         MOV     R4,#0x32
   \   000089   7D00         MOV     R5,#0x0
   \   00008B   7900         MOV     R1,#0x0
   \   00008D   85..82       MOV     DPL,?XSP + 0
   \   000090   85..83       MOV     DPH,?XSP + 1
   \   000093   AA82         MOV     R2,DPL
   \   000095   AB83         MOV     R3,DPH
   \   000097   12....       LCALL   ??osal_memset?relay
    529            }
    530            else
    531            {
    532               osal_memset(sdata,0,50);
    533              // Error occurred in request to send.
    534            }
    535          }
   \   00009A   02....       LJMP    ?Subroutine0 & 0xFFFF
    536          

   \                                 In  segment BANKED_CODE, align 1, keep-with-next
    537          void SampleApp_CallBack(uint8 port, uint8 event)
   \                     SampleApp_CallBack:
    538          {
   \   000000   74F7         MOV     A,#-0x9
   \   000002   12....       LCALL   ?BANKED_ENTER_XDATA
   \   000005                ; Saved register size: 9
   \   000005                ; Auto size: 48
   \   000005   74D0         MOV     A,#-0x30
   \   000007   12....       LCALL   ?ALLOC_XSTACK8
   \   00000A   EA           MOV     A,R2
   \   00000B   FE           MOV     R6,A
    539            HalLedBlink( HAL_LED_1, 1, 50, 200); 
   \   00000C                ; Setup parameters for call to function HalLedBlink
   \   00000C   7CC8         MOV     R4,#-0x38
   \   00000E   7D00         MOV     R5,#0x0
   \   000010   7B32         MOV     R3,#0x32
   \   000012   7A01         MOV     R2,#0x1
   \   000014   7901         MOV     R1,#0x1
   \   000016   12....       LCALL   ??HalLedBlink?relay
    540            MicroWait(50000);
   \   000019                ; Setup parameters for call to function Onboard_wait
   \   000019   7A50         MOV     R2,#0x50
   \   00001B   7BC3         MOV     R3,#-0x3d
   \   00001D   12....       LCALL   ??Onboard_wait?relay
    541            uint8 FixedString[48]={0};
   \   000020   85..82       MOV     DPL,?XSP + 0
   \   000023   85..83       MOV     DPH,?XSP + 1
   \   000026   AC82         MOV     R4,DPL
   \   000028   AD83         MOV     R5,DPH
   \   00002A   7583..       MOV     DPH,#(`?<Constant {0}>_2` >> 8) & 0xff
   \   00002D   7582..       MOV     DPL,#`?<Constant {0}>_2` & 0xff
   \   000030   7430         MOV     A,#0x30
   \   000032   12....       LCALL   ?MOVE_LONG8_XDATA_XDATA
    542            if (event & (HAL_UART_RX_FULL | HAL_UART_RX_ABOUT_FULL | HAL_UART_RX_TIMEOUT))
   \   000035   7407         MOV     A,#0x7
   \   000037   5E           ANL     A,R6
   \   000038   603D         JZ      ??SampleApp_CallBack_0
    543            {
    544              HalUARTRead(0,(unsigned char*)FixedString,48);
   \   00003A                ; Setup parameters for call to function HalUARTRead
   \   00003A   7C30         MOV     R4,#0x30
   \   00003C   7D00         MOV     R5,#0x0
   \   00003E   85..82       MOV     DPL,?XSP + 0
   \   000041   85..83       MOV     DPH,?XSP + 1
   \   000044   AA82         MOV     R2,DPL
   \   000046   AB83         MOV     R3,DPH
   \   000048   7900         MOV     R1,#0x0
   \   00004A   12....       LCALL   ??HalUARTRead?relay
    545              if(FixedString[0]!=0)
   \   00004D   85..82       MOV     DPL,?XSP + 0
   \   000050   85..83       MOV     DPH,?XSP + 1
   \   000053   E0           MOVX    A,@DPTR
   \   000054   6007         JZ      ??SampleApp_CallBack_1
    546              SampleApp_SendPointToPointMessage(FixedString);
   \   000056                ; Setup parameters for call to function SampleApp_SendPointToPointMessage
   \   000056   AA82         MOV     R2,DPL
   \   000058   AB83         MOV     R3,DPH
   \   00005A   12....       LCALL   ??SampleApp_SendPointToPointMessage?relay
    547              MicroWait(1000);
   \                     ??SampleApp_CallBack_1:
   \   00005D                ; Setup parameters for call to function Onboard_wait
   \   00005D   7AE8         MOV     R2,#-0x18
   \   00005F   7B03         MOV     R3,#0x3
   \   000061   12....       LCALL   ??Onboard_wait?relay
    548              osal_memset(FixedString,0,48);
   \   000064                ; Setup parameters for call to function osal_memset
   \   000064   7C30         MOV     R4,#0x30
   \   000066   7D00         MOV     R5,#0x0
   \   000068   7900         MOV     R1,#0x0
   \   00006A   85..82       MOV     DPL,?XSP + 0
   \   00006D   85..83       MOV     DPH,?XSP + 1
   \   000070   AA82         MOV     R2,DPL
   \   000072   AB83         MOV     R3,DPH
   \   000074   12....       LCALL   ??osal_memset?relay
    549            }
    550            
    551          }
   \                     ??SampleApp_CallBack_0:
   \   000077   7430         MOV     A,#0x30
   \   000079   12....       LCALL   ?DEALLOC_XSTACK8
   \   00007C   7F01         MOV     R7,#0x1
   \   00007E   02....       LJMP    ?BANKED_LEAVE_XDATA

   \                                 In  segment XDATA_ID, align 1, keep-with-next
   \                     `?<Initializer for ID>`:
   \   000000   01           DB 1

   \                                 In  segment BANK_RELAYS, align 1
   \                     ??SampleApp_Init?relay:
   \   000000   12....       LCALL   ?BDISPATCH
   \   000003   ......       DC24    SampleApp_Init

   \                                 In  segment BANK_RELAYS, align 1
   \                     ??SampleApp_ProcessEvent?relay:
   \   000000   12....       LCALL   ?BDISPATCH
   \   000003   ......       DC24    SampleApp_ProcessEvent

   \                                 In  segment BANK_RELAYS, align 1
   \                     ??SampleApp_HandleKeys?relay:
   \   000000   12....       LCALL   ?BDISPATCH
   \   000003   ......       DC24    SampleApp_HandleKeys

   \                                 In  segment BANK_RELAYS, align 1
   \                     ??SampleApp_MessageMSGCB?relay:
   \   000000   12....       LCALL   ?BDISPATCH
   \   000003   ......       DC24    SampleApp_MessageMSGCB

   \                                 In  segment BANK_RELAYS, align 1
   \                     ??SampleApp_SendPeriodicMessage?relay:
   \   000000   12....       LCALL   ?BDISPATCH
   \   000003   ......       DC24    SampleApp_SendPeriodicMessage

   \                                 In  segment BANK_RELAYS, align 1
   \                     ??SampleApp_SendFlashMessage?relay:
   \   000000   12....       LCALL   ?BDISPATCH
   \   000003   ......       DC24    SampleApp_SendFlashMessage

   \                                 In  segment BANK_RELAYS, align 1
   \                     ??SampleApp_SendPointToPointMessage?relay:
   \   000000   12....       LCALL   ?BDISPATCH
   \   000003   ......       DC24    SampleApp_SendPointToPointMessage

   \                                 In  segment BANK_RELAYS, align 1
   \                     ??SampleApp_CallBack?relay:
   \   000000   12....       LCALL   ?BDISPATCH
   \   000003   ......       DC24    SampleApp_CallBack

   \                                 In  segment XDATA_ROM_C, align 1
   \                     `?<Constant "Group 1">`:
   \   000000   47726F75     DB "Group 1"
   \            70203100

   \                                 In  segment XDATA_ROM_C, align 1
   \                     `?<Constant "SampleApp">`:
   \   000000   53616D70     DB "SampleApp"
   \            6C654170
   \            7000    

   \                                 In  segment XDATA_ROM_C, align 1
   \                     `?<Constant {0}>`:
   \   000000   00           DB 0
   \   000001   00000000     DB 0, 0, 0, 0, 0, 0, 0, 0
   \            00000000
   \   000009   00000000     DB 0, 0, 0, 0, 0, 0, 0, 0
   \            00000000
   \   000011   00000000     DB 0, 0, 0, 0, 0, 0, 0, 0
   \            00000000
   \   000019   00000000     DB 0, 0, 0, 0, 0, 0, 0, 0
   \            00000000
   \   000021   00000000     DB 0, 0, 0, 0, 0, 0, 0, 0
   \            00000000
   \   000029   00000000     DB 0, 0, 0, 0, 0, 0, 0, 0
   \            00000000
   \   000031   00           DB 0

   \                                 In  segment XDATA_ROM_C, align 1
   \                     `?<Constant {0}>_1`:
   \   000000   00           DB 0
   \   000001   00000000     DB 0, 0, 0, 0, 0, 0, 0, 0
   \            00000000
   \   000009   00000000     DB 0, 0, 0, 0, 0, 0, 0, 0
   \            00000000
   \   000011   00000000     DB 0, 0, 0, 0, 0, 0, 0, 0
   \            00000000
   \   000019   00000000     DB 0, 0, 0, 0, 0, 0, 0, 0
   \            00000000
   \   000021   00000000     DB 0, 0, 0, 0, 0, 0, 0, 0
   \            00000000
   \   000029   00000000     DB 0, 0, 0, 0, 0, 0, 0, 0
   \            00000000
   \   000031   00           DB 0

   \                                 In  segment XDATA_ROM_C, align 1
   \                     `?<Constant {0}>_2`:
   \   000000   00           DB 0
   \   000001   00000000     DB 0, 0, 0, 0, 0, 0, 0, 0
   \            00000000
   \   000009   00000000     DB 0, 0, 0, 0, 0, 0, 0, 0
   \            00000000
   \   000011   00000000     DB 0, 0, 0, 0, 0, 0, 0, 0
   \            00000000
   \   000019   00000000     DB 0, 0, 0, 0, 0, 0, 0, 0
   \            00000000
   \   000021   00000000     DB 0, 0, 0, 0, 0, 0, 0, 0
   \            00000000
   \   000029   00000000     DB 0, 0, 0, 0, 0, 0, 0
   \            000000  

   Maximum stack usage in bytes:

     Function                       ISTACK PSTACK XSTACK
     --------                       ------ ------ ------
     SampleApp_CallBack                 2      0     57
       -> HalLedBlink                   0      0    114
       -> Onboard_wait                  0      0    114
       -> HalUARTRead                   0      0    114
       -> SampleApp_SendPointToPointMessage
                                        0      0    114
       -> Onboard_wait                  0      0    114
       -> osal_memset                   0      0    114
     SampleApp_HandleKeys               0      0     22
       -> SampleApp_SendFlashMessage
                                        0      0     20
       -> aps_FindGroup                 0      0     20
       -> aps_RemoveGroup               0      0     20
       -> aps_AddGroup                  0      0     20
     SampleApp_Init                     0      0     43
       -> HalUARTOpen                   0      0     80
       -> MT_UartRegisterTaskID         0      0     80
       -> afRegister                    0      0     80
       -> RegisterForKeys               0      0     80
       -> osal_memcpy                   0      0     86
       -> aps_AddGroup                  0      0     80
       -> HalLcdWriteString             0      0     80
     SampleApp_MessageMSGCB             2      0     76
       -> osal_memcpy                   0      0    128
       -> HalLedBlink                   0      0    122
       -> HalLedBlink                   0      0    122
     SampleApp_ProcessEvent             0      0     12
       -> osal_msg_receive              0      0     24
       -> osal_msg_deallocate           0      0     24
       -> osal_msg_receive              0      0     24
       -> SampleApp_HandleKeys          0      0     24
       -> SampleApp_MessageMSGCB        0      0     24
     SampleApp_SendFlashMessage         1      0     32
       -> AF_DataRequest                0      0     44
     SampleApp_SendPeriodicMessage      0      0      0
     SampleApp_SendPointToPointMessage
                                        2      0    127
       -> osal_memcpy                   0      0    128
       -> AF_DataRequest                0      0    140
       -> osal_memset                   0      0    122


   Segment part sizes:

     Function/Label                            Bytes
     --------------                            -----
     SampleApp_ClusterList                        6
     SampleApp_SimpleDesc                        12
     SampleApp_epDesc                             6
     SampleApp_TaskID                             1
     SampleApp_NwkState                           1
     SampleApp_TransID                            1
     SampleApp_Periodic_DstAddr                  12
     SampleApp_Flash_DstAddr                     12
     Point_To_Point_DstAddr                      12
     SampleApp_Group                             18
     SampleAppPeriodicCounter                     1
     SampleAppFlashCounter                        1
     ID                                           1
     SampleApp_Init                             274
     ?Subroutine2                                 2
     ??Subroutine3_0                              5
     ??Subroutine4_0                              8
     SampleApp_ProcessEvent                     113
     SampleApp_HandleKeys                        59
     ?Subroutine1                                 5
     SampleApp_MessageMSGCB                     134
     ?Subroutine0                                 2
     SampleApp_SendPeriodicMessage                3
     SampleApp_SendFlashMessage                 121
     SampleApp_SendPointToPointMessage
                                                157
     SampleApp_CallBack                         129
     ?<Initializer for ID>                        1
     ??SampleApp_Init?relay                       6
     ??SampleApp_ProcessEvent?relay               6
     ??SampleApp_HandleKeys?relay                 6
     ??SampleApp_MessageMSGCB?relay               6
     ??SampleApp_SendPeriodicMessage?relay        6
     ??SampleApp_SendFlashMessage?relay           6
     ??SampleApp_SendPointToPointMessage?relay    6
     ??SampleApp_CallBack?relay                   6
     ?<Constant "Group 1">                        8
     ?<Constant "SampleApp">                     10
     ?<Constant {0}>                             50
     ?<Constant {0}>_1                           50
     ?<Constant {0}>_2                           48

 
 1 012 bytes in segment BANKED_CODE
    48 bytes in segment BANK_RELAYS
     1 byte  in segment XDATA_I
     1 byte  in segment XDATA_ID
   184 bytes in segment XDATA_ROM_C
    65 bytes in segment XDATA_Z
 
 1 061 bytes of CODE  memory
   184 bytes of CONST memory
    66 bytes of XDATA memory

Errors: none
Warnings: 2
